; ModuleID = '38/1718.c'
source_filename = "38/1718.c"
target datalayout = "e-m:e-p270:32:32-p271:32:32-p272:64:64-i64:64-f80:128-n8:16:32:64-S128"
target triple = "x86_64-pc-linux-gnu"

@.str = private unnamed_addr constant [3 x i8] c"%d\00", align 1
@.str.1 = private unnamed_addr constant [4 x i8] c"%lf\00", align 1
@.str.2 = private unnamed_addr constant [6 x i8] c"%.5f\0A\00", align 1

; Function Attrs: noinline nounwind uwtable
define dso_local i32 @main(i32 %0, i8** %1) #0 {
  %3 = alloca i32, align 4
  %4 = alloca i32, align 4
  %5 = alloca i8**, align 8
  %6 = alloca i32, align 4
  %7 = alloca i32, align 4
  %8 = alloca i32, align 4
  %9 = alloca [100 x i32], align 16
  %10 = alloca [1000 x double], align 16
  %11 = alloca double, align 8
  %12 = alloca double, align 8
  %13 = alloca double, align 8
  store i32 0, i32* %3, align 4
  store i32 %0, i32* %4, align 4
  store i8** %1, i8*** %5, align 8
  store double 0.000000e+00, double* %11, align 8
  store double 0.000000e+00, double* %12, align 8
  store double 0.000000e+00, double* %13, align 8
  %14 = call i32 (i8*, ...) @__isoc99_scanf(i8* getelementptr inbounds ([3 x i8], [3 x i8]* @.str, i64 0, i64 0), i32* %8)
  store i32 0, i32* %6, align 4
  br label %15

15:                                               ; preds = %93, %2
  %16 = load i32, i32* %6, align 4
  %17 = load i32, i32* %8, align 4
  %18 = icmp slt i32 %16, %17
  br i1 %18, label %19, label %96

19:                                               ; preds = %15
  %20 = load i32, i32* %6, align 4
  %21 = sext i32 %20 to i64
  %22 = getelementptr inbounds [100 x i32], [100 x i32]* %9, i64 0, i64 %21
  %23 = call i32 (i8*, ...) @__isoc99_scanf(i8* getelementptr inbounds ([3 x i8], [3 x i8]* @.str, i64 0, i64 0), i32* %22)
  store i32 0, i32* %7, align 4
  br label %24

24:                                               ; preds = %42, %19
  %25 = load i32, i32* %7, align 4
  %26 = load i32, i32* %6, align 4
  %27 = sext i32 %26 to i64
  %28 = getelementptr inbounds [100 x i32], [100 x i32]* %9, i64 0, i64 %27
  %29 = load i32, i32* %28, align 4
  %30 = icmp slt i32 %25, %29
  br i1 %30, label %31, label %45

31:                                               ; preds = %24
  %32 = load i32, i32* %7, align 4
  %33 = sext i32 %32 to i64
  %34 = getelementptr inbounds [1000 x double], [1000 x double]* %10, i64 0, i64 %33
  %35 = call i32 (i8*, ...) @__isoc99_scanf(i8* getelementptr inbounds ([4 x i8], [4 x i8]* @.str.1, i64 0, i64 0), double* %34)
  %36 = load i32, i32* %7, align 4
  %37 = sext i32 %36 to i64
  %38 = getelementptr inbounds [1000 x double], [1000 x double]* %10, i64 0, i64 %37
  %39 = load double, double* %38, align 8
  %40 = load double, double* %11, align 8
  %41 = fadd double %40, %39
  store double %41, double* %11, align 8
  br label %42

42:                                               ; preds = %31
  %43 = load i32, i32* %7, align 4
  %44 = add nsw i32 %43, 1
  store i32 %44, i32* %7, align 4
  br label %24

45:                                               ; preds = %24
  %46 = load double, double* %11, align 8
  %47 = load i32, i32* %6, align 4
  %48 = sext i32 %47 to i64
  %49 = getelementptr inbounds [100 x i32], [100 x i32]* %9, i64 0, i64 %48
  %50 = load i32, i32* %49, align 4
  %51 = sitofp i32 %50 to double
  %52 = fmul double %51, 1.000000e+00
  %53 = fdiv double %46, %52
  store double %53, double* %11, align 8
  store i32 0, i32* %7, align 4
  br label %54

54:                                               ; preds = %77, %45
  %55 = load i32, i32* %7, align 4
  %56 = load i32, i32* %6, align 4
  %57 = sext i32 %56 to i64
  %58 = getelementptr inbounds [100 x i32], [100 x i32]* %9, i64 0, i64 %57
  %59 = load i32, i32* %58, align 4
  %60 = icmp slt i32 %55, %59
  br i1 %60, label %61, label %80

61:                                               ; preds = %54
  %62 = load i32, i32* %7, align 4
  %63 = sext i32 %62 to i64
  %64 = getelementptr inbounds [1000 x double], [1000 x double]* %10, i64 0, i64 %63
  %65 = load double, double* %64, align 8
  %66 = load double, double* %11, align 8
  %67 = fsub double %65, %66
  %68 = load i32, i32* %7, align 4
  %69 = sext i32 %68 to i64
  %70 = getelementptr inbounds [1000 x double], [1000 x double]* %10, i64 0, i64 %69
  %71 = load double, double* %70, align 8
  %72 = load double, double* %11, align 8
  %73 = fsub double %71, %72
  %74 = fmul double %67, %73
  %75 = load double, double* %12, align 8
  %76 = fadd double %75, %74
  store double %76, double* %12, align 8
  br label %77

77:                                               ; preds = %61
  %78 = load i32, i32* %7, align 4
  %79 = add nsw i32 %78, 1
  store i32 %79, i32* %7, align 4
  br label %54

80:                                               ; preds = %54
  %81 = load double, double* %12, align 8
  %82 = load i32, i32* %6, align 4
  %83 = sext i32 %82 to i64
  %84 = getelementptr inbounds [100 x i32], [100 x i32]* %9, i64 0, i64 %83
  %85 = load i32, i32* %84, align 4
  %86 = sitofp i32 %85 to double
  %87 = fmul double %86, 1.000000e+00
  %88 = fdiv double %81, %87
  store double %88, double* %12, align 8
  %89 = load double, double* %12, align 8
  %90 = call double @sqrt(double %89) #3
  store double %90, double* %13, align 8
  %91 = load double, double* %13, align 8
  %92 = call i32 (i8*, ...) @printf(i8* getelementptr inbounds ([6 x i8], [6 x i8]* @.str.2, i64 0, i64 0), double %91)
  store double 0.000000e+00, double* %11, align 8
  store double 0.000000e+00, double* %12, align 8
  store double 0.000000e+00, double* %13, align 8
  br label %93

93:                                               ; preds = %80
  %94 = load i32, i32* %6, align 4
  %95 = add nsw i32 %94, 1
  store i32 %95, i32* %6, align 4
  br label %15

96:                                               ; preds = %15
  ret i32 0
}

declare dso_local i32 @__isoc99_scanf(i8*, ...) #1

; Function Attrs: nounwind
declare dso_local double @sqrt(double) #2

declare dso_local i32 @printf(i8*, ...) #1


!llvm.module.flags = !{!0}
!llvm.ident = !{!1}

!0 = !{i32 1, !"wchar_size", i32 4}
!1 = !{!"clang version 10.0.0-4ubuntu1 "}
